target datalayout = "e-m:e-p270:32:32-p271:32:32-p272:64:64-i64:64-i128:128-f80:128-n8:16:32:64-S128"
target triple = "x86_64-pc-linux-gnu"

%struct.asn1_pctx_st = type { i64, i64, i64, i64, i64 }

@asn1_print_fsname.spaces = internal global [21 x i8] c"                    \00", align 16
@.str.14 = private unnamed_addr constant [6 x i8] c" (%s)\00", align 1
@.str.15 = private unnamed_addr constant [3 x i8] c": \00", align 1

; Function Attrs: nounwind uwtable
define internal i32 @asn1_print_fsname(ptr noundef %0, i32 noundef %1, ptr noundef %2, ptr noundef %3, ptr noundef %4) #0 {
  %6 = alloca i32, align 4
  %7 = alloca ptr, align 8
  %8 = alloca i32, align 4
  %9 = alloca ptr, align 8
  %10 = alloca ptr, align 8
  %11 = alloca ptr, align 8
  %12 = alloca i32, align 4
  %13 = alloca i32, align 4
  store ptr %0, ptr %7, align 8, !tbaa !19
  store i32 %1, ptr %8, align 4, !tbaa !23
  store ptr %2, ptr %9, align 8, !tbaa !27
  store ptr %3, ptr %10, align 8, !tbaa !27
  store ptr %4, ptr %11, align 8, !tbaa !6
  call void @llvm.lifetime.start.p0(i64 4, ptr %12) #5
  store i32 20, ptr %12, align 4, !tbaa !23
  br label %14

14:                                               ; preds = %22, %5
  %15 = load i32, ptr %8, align 4, !tbaa !23
  %16 = icmp sgt i32 %15, 20
  br i1 %16, label %17, label %25

17:                                               ; preds = %14
  %18 = load ptr, ptr %7, align 8, !tbaa !19
  %19 = call i32 @BIO_write(ptr noundef %18, ptr noundef @asn1_print_fsname.spaces, i32 noundef 20)
  %20 = icmp ne i32 %19, 20
  br i1 %20, label %21, label %22

21:                                               ; preds = %17
  store i32 0, ptr %6, align 4
  store i32 1, ptr %13, align 4
  br label %90

22:                                               ; preds = %17
  %23 = load i32, ptr %8, align 4, !tbaa !23
  %24 = sub nsw i32 %23, 20
  store i32 %24, ptr %8, align 4, !tbaa !23
  br label %14, !llvm.loop !61

25:                                               ; preds = %14
  %26 = load ptr, ptr %7, align 8, !tbaa !19
  %27 = load i32, ptr %8, align 4, !tbaa !23
  %28 = call i32 @BIO_write(ptr noundef %26, ptr noundef @asn1_print_fsname.spaces, i32 noundef %27)
  %29 = load i32, ptr %8, align 4, !tbaa !23
  %30 = icmp ne i32 %28, %29
  br i1 %30, label %31, label %32

31:                                               ; preds = %25
  store i32 0, ptr %6, align 4
  store i32 1, ptr %13, align 4
  br label %90

32:                                               ; preds = %25
  %33 = load ptr, ptr %11, align 8, !tbaa !6
  %34 = getelementptr inbounds nuw %struct.asn1_pctx_st, ptr %33, i32 0, i32 0
  %35 = load i64, ptr %34, align 8, !tbaa !11
  %36 = and i64 %35, 256
  %37 = icmp ne i64 %36, 0
  br i1 %37, label %38, label %39

38:                                               ; preds = %32
  store ptr null, ptr %10, align 8, !tbaa !27
  br label %39

39:                                               ; preds = %38, %32
  %40 = load ptr, ptr %11, align 8, !tbaa !6
  %41 = getelementptr inbounds nuw %struct.asn1_pctx_st, ptr %40, i32 0, i32 0
  %42 = load i64, ptr %41, align 8, !tbaa !11
  %43 = and i64 %42, 64
  %44 = icmp ne i64 %43, 0
  br i1 %44, label %45, label %46

45:                                               ; preds = %39
  store ptr null, ptr %9, align 8, !tbaa !27
  br label %46

46:                                               ; preds = %45, %39
  %47 = load ptr, ptr %10, align 8, !tbaa !27
  %48 = icmp ne ptr %47, null
  br i1 %48, label %53, label %49

49:                                               ; preds = %46
  %50 = load ptr, ptr %9, align 8, !tbaa !27
  %51 = icmp ne ptr %50, null
  br i1 %51, label %53, label %52

52:                                               ; preds = %49
  store i32 1, ptr %6, align 4
  store i32 1, ptr %13, align 4
  br label %90

53:                                               ; preds = %49, %46
  %54 = load ptr, ptr %9, align 8, !tbaa !27
  %55 = icmp ne ptr %54, null
  br i1 %55, label %56, label %63

56:                                               ; preds = %53
  %57 = load ptr, ptr %7, align 8, !tbaa !19
  %58 = load ptr, ptr %9, align 8, !tbaa !27
  %59 = call i32 @BIO_puts(ptr noundef %57, ptr noundef %58)
  %60 = icmp sle i32 %59, 0
  br i1 %60, label %61, label %62

61:                                               ; preds = %56
  store i32 0, ptr %6, align 4
  store i32 1, ptr %13, align 4
  br label %90

62:                                               ; preds = %56
  br label %63

63:                                               ; preds = %62, %53
  %64 = load ptr, ptr %10, align 8, !tbaa !27
  %65 = icmp ne ptr %64, null
  br i1 %65, label %66, label %84

66:                                               ; preds = %63
  %67 = load ptr, ptr %9, align 8, !tbaa !27
  %68 = icmp ne ptr %67, null
  br i1 %68, label %69, label %76

69:                                               ; preds = %66
  %70 = load ptr, ptr %7, align 8, !tbaa !19
  %71 = load ptr, ptr %10, align 8, !tbaa !27
  %72 = call i32 (ptr, ptr, ...) @BIO_printf(ptr noundef %70, ptr noundef @.str.14, ptr noundef %71)
  %73 = icmp sle i32 %72, 0
  br i1 %73, label %74, label %75

74:                                               ; preds = %69
  store i32 0, ptr %6, align 4
  store i32 1, ptr %13, align 4
  br label %90

75:                                               ; preds = %69
  br label %83

76:                                               ; preds = %66
  %77 = load ptr, ptr %7, align 8, !tbaa !19
  %78 = load ptr, ptr %10, align 8, !tbaa !27
  %79 = call i32 @BIO_puts(ptr noundef %77, ptr noundef %78)
  %80 = icmp sle i32 %79, 0
  br i1 %80, label %81, label %82

81:                                               ; preds = %76
  store i32 0, ptr %6, align 4
  store i32 1, ptr %13, align 4
  br label %90

82:                                               ; preds = %76
  br label %83

83:                                               ; preds = %82, %75
  br label %84

84:                                               ; preds = %83, %63
  %85 = load ptr, ptr %7, align 8, !tbaa !19
  %86 = call i32 @BIO_write(ptr noundef %85, ptr noundef @.str.15, i32 noundef 2)
  %87 = icmp ne i32 %86, 2
  br i1 %87, label %88, label %89

88:                                               ; preds = %84
  store i32 0, ptr %6, align 4
  store i32 1, ptr %13, align 4
  br label %90

89:                                               ; preds = %84
  store i32 1, ptr %6, align 4
  store i32 1, ptr %13, align 4
  br label %90

90:                                               ; preds = %89, %88, %81, %74, %61, %52, %31, %21
  call void @llvm.lifetime.end.p0(i64 4, ptr %12) #5
  %91 = load i32, ptr %6, align 4
  ret i32 %91
}